target datalayout = "e-m:e-p270:32:32-p271:32:32-p272:64:64-i64:64-i128:128-f80:128-n8:16:32:64-S128"
target triple = "x86_64-pc-linux-gnu"

@.str.3 = private unnamed_addr constant [2 x i8] c"\0A\00", align 1
@.str.4 = private unnamed_addr constant [63 x i8] c"    equiv_make [options] gold_module gate_module equiv_module\0A\00", align 1
@.str.5 = private unnamed_addr constant [71 x i8] c"This creates a module annotated with $equiv cells from two presumably\0A\00", align 1
@.str.6 = private unnamed_addr constant [76 x i8] c"equivalent modules. Use commands such as 'equiv_simple' and 'equiv_status'\0A\00", align 1
@.str.7 = private unnamed_addr constant [54 x i8] c"to work with the created equivalent checking module.\0A\00", align 1
@.str.8 = private unnamed_addr constant [13 x i8] c"    -inames\0A\00", align 1
@.str.9 = private unnamed_addr constant [53 x i8] c"        Also match cells and wires with $... names.\0A\00", align 1
@.str.10 = private unnamed_addr constant [23 x i8] c"    -blacklist <file>\0A\00", align 1
@.str.11 = private unnamed_addr constant [73 x i8] c"        Do not match cells or signals that match the names in the file.\0A\00", align 1
@.str.12 = private unnamed_addr constant [21 x i8] c"    -encfile <file>\0A\00", align 1
@.str.13 = private unnamed_addr constant [66 x i8] c"        Match FSM encodings using the description from the file.\0A\00", align 1
@.str.14 = private unnamed_addr constant [44 x i8] c"        See 'help fsm_recode' for details.\0A\00", align 1
@.str.15 = private unnamed_addr constant [18 x i8] c"    -make_assert\0A\00", align 1
@.str.16 = private unnamed_addr constant [65 x i8] c"        Check equivalence with $assert cells instead of $equiv.\0A\00", align 1
@.str.17 = private unnamed_addr constant [47 x i8] c"        $eqx (===) is used to compare signals.\00", align 1
@.str.18 = private unnamed_addr constant [79 x i8] c"Note: The circuit created by this command is not a miter (with something like\0A\00", align 1
@.str.19 = private unnamed_addr constant [76 x i8] c"a trigger output), but instead uses $equiv cells to encode the equivalence\0A\00", align 1
@.str.20 = private unnamed_addr constant [77 x i8] c"checking problem. Use 'miter -equiv' if you want to create a miter circuit.\0A\00", align 1

; Function Attrs: mustprogress uwtable
define internal void @_ZN12_GLOBAL__N_113EquivMakePass4helpEv(ptr noundef nonnull align 8 dereferenceable(104) %0) unnamed_addr #4 align 2 {
  %2 = alloca ptr, align 8
  store ptr %0, ptr %2, align 8
  call void (ptr, ...) @_ZN5Yosys3logEPKcz(ptr noundef @.str.3)
  call void (ptr, ...) @_ZN5Yosys3logEPKcz(ptr noundef @.str.4)
  call void (ptr, ...) @_ZN5Yosys3logEPKcz(ptr noundef @.str.3)
  call void (ptr, ...) @_ZN5Yosys3logEPKcz(ptr noundef @.str.5)
  call void (ptr, ...) @_ZN5Yosys3logEPKcz(ptr noundef @.str.6)
  call void (ptr, ...) @_ZN5Yosys3logEPKcz(ptr noundef @.str.7)
  call void (ptr, ...) @_ZN5Yosys3logEPKcz(ptr noundef @.str.3)
  call void (ptr, ...) @_ZN5Yosys3logEPKcz(ptr noundef @.str.8)
  call void (ptr, ...) @_ZN5Yosys3logEPKcz(ptr noundef @.str.9)
  call void (ptr, ...) @_ZN5Yosys3logEPKcz(ptr noundef @.str.3)
  call void (ptr, ...) @_ZN5Yosys3logEPKcz(ptr noundef @.str.10)
  call void (ptr, ...) @_ZN5Yosys3logEPKcz(ptr noundef @.str.11)
  call void (ptr, ...) @_ZN5Yosys3logEPKcz(ptr noundef @.str.3)
  call void (ptr, ...) @_ZN5Yosys3logEPKcz(ptr noundef @.str.12)
  call void (ptr, ...) @_ZN5Yosys3logEPKcz(ptr noundef @.str.13)
  call void (ptr, ...) @_ZN5Yosys3logEPKcz(ptr noundef @.str.14)
  call void (ptr, ...) @_ZN5Yosys3logEPKcz(ptr noundef @.str.3)
  call void (ptr, ...) @_ZN5Yosys3logEPKcz(ptr noundef @.str.15)
  call void (ptr, ...) @_ZN5Yosys3logEPKcz(ptr noundef @.str.16)
  call void (ptr, ...) @_ZN5Yosys3logEPKcz(ptr noundef @.str.17)
  call void (ptr, ...) @_ZN5Yosys3logEPKcz(ptr noundef @.str.3)
  call void (ptr, ...) @_ZN5Yosys3logEPKcz(ptr noundef @.str.18)
  call void (ptr, ...) @_ZN5Yosys3logEPKcz(ptr noundef @.str.19)
  call void (ptr, ...) @_ZN5Yosys3logEPKcz(ptr noundef @.str.20)
  call void (ptr, ...) @_ZN5Yosys3logEPKcz(ptr noundef @.str.3)
  ret void
}